Certificate:
    Data:
        Version: 3 (0x2)
        Serial Number: 1 (0x1)
    Signature Algorithm: sha256WithRSAEncryption
        Issuer: CN=QUIC Server Root CA
        Validity
            Not Before: Jul  7 08:22:51 2017 GMT
            Not After : Jul 10 08:22:51 2017 GMT
        Subject: C=US, ST=California, L=Mountain View, O=QUIC Server, CN=127.0.0.1
        Subject Public Key Info:
            Public Key Algorithm: rsaEncryption
                Public-Key: (2048 bit)
                Modulus:
                    00:99:89:1d:19:be:d9:cf:c8:0d:92:11:48:fc:a0:
                    fa:4c:6e:e8:5d:9c:ec:65:04:25:85:0f:19:a1:51:
                    4b:f1:a3:68:d3:8b:ca:ea:fe:71:6b:56:f2:ab:7e:
                    a7:47:11:15:5b:64:69:89:65:89:4e:16:a3:4f:a7:
                    e7:53:bd:86:4c:a4:8e:e2:d9:fb:dc:13:d5:cc:9d:
                    eb:1c:cd:b5:a0:63:c1:df:a3:1e:43:2c:99:47:29:
                    af:7f:2e:ae:75:08:41:fc:27:d1:d6:cd:40:75:fa:
                    94:9d:14:76:d7:e9:34:7e:cc:32:66:0e:7b:60:5a:
                    2c:26:c7:03:92:56:57:29:a1:87:b0:fc:fb:24:8a:
                    a3:b2:5c:a7:43:a1:f5:e7:3c:2f:d9:32:74:8a:1f:
                    43:e9:f0:43:ab:27:99:1d:bf:8e:4c:37:55:f3:40:
                    cb:5c:c6:67:4c:a1:eb:fc:bd:11:7e:8b:c2:1c:83:
                    5a:09:fe:e9:b8:0f:fd:ce:0c:27:f0:24:d4:a8:3b:
                    66:6a:ef:60:6a:fe:4f:f4:8f:94:14:a7:12:bd:29:
                    49:02:30:5b:eb:20:6a:49:eb:68:7d:c4:19:2e:c7:
                    bf:c7:23:01:da:86:50:c6:df:13:cc:2d:6b:3f:95:
                    b9:67:76:c3:a4:15:00:70:bc:72:34:9e:32:f0:00:
                    2a:03
                Exponent: 65537 (0x10001)
        X509v3 extensions:
            X509v3 Basic Constraints: critical
                CA:FALSE
            X509v3 Subject Key Identifier: 
                0D:26:02:BB:14:3D:97:62:9F:8C:A4:1F:D9:BB:CB:44:35:08:16:C1
            X509v3 Authority Key Identifier: 
                keyid:D8:A0:00:C9:22:37:B7:10:29:DA:BB:E4:BC:49:EE:11:05:54:0F:3E

            X509v3 Extended Key Usage: 
                TLS Web Server Authentication, TLS Web Client Authentication
            X509v3 Subject Alternative Name: 
                DNS:www.example.org, DNS:mail.example.org, DNS:mail.example.com, IP Address:127.0.0.1
    Signature Algorithm: sha256WithRSAEncryption
         c1:fa:77:d8:f9:47:47:96:8a:63:27:f8:b2:e2:5e:c3:6e:0a:
         bb:a7:68:72:8d:e1:3e:68:fb:74:2c:63:01:73:1e:12:3e:b9:
         a6:60:f4:05:a8:8a:9e:97:3b:36:70:4b:8c:b9:e1:bd:6a:c6:
         47:55:01:5f:83:fd:bd:0c:c3:bb:da:bb:05:25:63:85:42:4f:
         22:02:98:b8:1f:1b:43:51:cf:1f:b8:9b:89:70:93:49:d6:d4:
         57:af:f7:5f:f9:1c:30:88:d2:56:53:39:a4:1c:96:66:3c:44:
         6f:16:67:e1:3b:de:f9:44:2c:08:b7:64:1a:ef:49:7b:fe:55:
         e2:31:00:96:22:6e:3e:76:e8:cd:10:d5:1d:37:96:38:40:c4:
         ba:8f:7c:4b:a0:49:2b:bd:a5:0a:4f:1b:61:57:ad:09:9e:cd:
         30:66:64:b2:69:e8:4a:68:69:4f:75:91:d3:3d:89:cd:e1:e9:
         f6:8e:3a:73:90:fb:2f:85:29:12:a8:68:6b:e5:80:13:4f:0b:
         89:d0:7a:ea:d2:bf:cc:9d:e1:5c:9c:74:dc:1c:76:64:6a:cd:
         38:33:ab:3f:c2:ed:2f:b6:ec:67:2b:e8:30:57:ed:46:a7:c4:
         a9:c0:f0:f4:a2:2a:6f:a8:34:21:07:f0:0c:58:72:a2:7f:24:
         12:df:d6:94
-----BEGIN CERTIFICATE-----
MIIDtDCCApygAwIBAgIBATANBgkqhkiG9w0BAQsFADAeMRwwGgYDVQQDDBNRVUlD
IFNlcnZlciBSb290IENBMB4XDTE3MDcwNzA4MjI1MVoXDTE3MDcxMDA4MjI1MVow
ZDELMAkGA1UEBhMCVVMxEzARBgNVBAgMCkNhbGlmb3JuaWExFjAUBgNVBAcMDU1v
dW50YWluIFZpZXcxFDASBgNVBAoMC1FVSUMgU2VydmVyMRIwEAYDVQQDDAkxMjcu
MC4wLjEwggEiMA0GCSqGSIb3DQEBAQUAA4IBDwAwggEKAoIBAQCZiR0ZvtnPyA2S
EUj8oPpMbuhdnOxlBCWFDxmhUUvxo2jTi8rq/nFrVvKrfqdHERVbZGmJZYlOFqNP
p+dTvYZMpI7i2fvcE9XMnesczbWgY8Hfox5DLJlHKa9/Lq51CEH8J9HWzUB1+pSd
FHbX6TR+zDJmDntgWiwmxwOSVlcpoYew/PskiqOyXKdDofXnPC/ZMnSKH0Pp8EOr
J5kdv45MN1XzQMtcxmdMoev8vRF+i8Icg1oJ/um4D/3ODCfwJNSoO2Zq72Bq/k/0
j5QUpxK9KUkCMFvrIGpJ62h9xBkux7/HIwHahlDG3xPMLWs/lblndsOkFQBwvHI0
njLwACoDAgMBAAGjgbYwgbMwDAYDVR0TAQH/BAIwADAdBgNVHQ4EFgQUDSYCuxQ9
l2KfjKQf2bvLRDUIFsEwHwYDVR0jBBgwFoAU2KAAySI3txAp2rvkvEnuEQVUDz4w
HQYDVR0lBBYwFAYIKwYBBQUHAwEGCCsGAQUFBwMCMEQGA1UdEQQ9MDuCD3d3dy5l
eGFtcGxlLm9yZ4IQbWFpbC5leGFtcGxlLm9yZ4IQbWFpbC5leGFtcGxlLmNvbYcE
fwAAATANBgkqhkiG9w0BAQsFAAOCAQEAwfp32PlHR5aKYyf4suJew24Ku6doco3h
Pmj7dCxjAXMeEj65pmD0BaiKnpc7NnBLjLnhvWrGR1UBX4P9vQzDu9q7BSVjhUJP
IgKYuB8bQ1HPH7ibiXCTSdbUV6/3X/kcMIjSVlM5pByWZjxEbxZn4Tve+UQsCLdk
Gu9Je/5V4jEAliJuPnbozRDVHTeWOEDEuo98S6BJK72lCk8bYVetCZ7NMGZksmno
SmhpT3WR0z2JzeHp9o46c5D7L4UpEqhoa+WAE08LidB66tK/zJ3hXJx03Bx2ZGrN
ODOrP8LtL7bsZyvoMFftRqfEqcDw9KIqb6g0IQfwDFhyon8kEt/WlA==
-----END CERTIFICATE-----
