Certificate:
    Data:
        Version: 3 (0x2)
        Serial Number: 15347525791090935147 (0xd4fd5d646f1f056b)
    Signature Algorithm: sha256WithRSAEncryption
        Issuer: CN=QUIC Server Root CA
        Validity
            Not Before: Jul  7 08:22:51 2017 GMT
            Not After : Jul 10 08:22:51 2017 GMT
        Subject: CN=QUIC Server Root CA
        Subject Public Key Info:
            Public Key Algorithm: rsaEncryption
                Public-Key: (2048 bit)
                Modulus:
                    00:d3:99:25:9f:0b:5b:52:00:98:97:e8:06:72:28:
                    cc:15:47:92:d9:83:92:d4:d3:e4:4d:d4:c3:43:c9:
                    c4:70:76:d4:86:f6:39:2e:30:26:a1:12:f9:8e:a3:
                    d5:69:d3:1f:76:85:bb:fe:c9:f5:f0:55:13:38:4c:
                    c4:74:88:e2:59:9a:af:7a:77:96:6f:74:aa:ca:fe:
                    fc:95:0d:5a:ee:a3:a7:b9:f0:21:6a:f5:44:81:cf:
                    72:f8:52:1c:1c:42:3b:16:03:9a:bc:df:ec:37:0a:
                    69:c7:ed:45:fc:84:33:72:4b:3b:75:39:89:c8:58:
                    83:1a:fa:10:a7:0e:84:b0:76:34:c3:4b:02:48:c6:
                    e8:af:b2:ac:e0:af:b9:53:93:2a:75:9a:77:2d:5b:
                    f0:bb:ed:6b:98:c0:f6:00:a3:36:c2:66:f7:9e:a6:
                    70:56:23:46:76:80:fc:79:91:2e:71:18:6f:6b:56:
                    0c:5e:f5:cf:16:f4:3d:0a:d2:65:10:a1:f9:77:26:
                    9f:e1:f2:bc:cb:d7:6e:af:af:a4:9b:ab:c2:10:80:
                    51:da:74:63:05:89:ff:51:12:3f:95:a3:7d:c0:0d:
                    61:70:df:7e:75:df:ac:f5:22:11:3a:d7:00:da:af:
                    60:f9:bb:79:56:b7:09:39:7c:58:27:0c:4f:bc:8f:
                    b5:f5
                Exponent: 65537 (0x10001)
        X509v3 extensions:
            X509v3 Basic Constraints: critical
                CA:TRUE
            X509v3 Subject Key Identifier: 
                D8:A0:00:C9:22:37:B7:10:29:DA:BB:E4:BC:49:EE:11:05:54:0F:3E
            X509v3 Key Usage: critical
                Certificate Sign, CRL Sign
    Signature Algorithm: sha256WithRSAEncryption
         56:3a:bb:e3:77:80:3d:15:7e:f6:ec:82:67:68:4b:61:b3:49:
         c0:67:8d:16:d6:47:50:5a:ad:8b:df:a1:7f:42:8c:1a:63:c5:
         1c:13:77:26:cd:b0:89:8e:d1:b4:b3:0c:15:24:79:3d:ea:ff:
         01:de:9d:ae:d6:09:21:8e:d2:0b:db:19:13:42:f5:ed:b3:73:
         ce:c1:cb:fe:b6:37:54:dc:6f:41:35:a2:db:05:ef:4b:7e:15:
         b6:2a:08:1a:b7:05:00:b7:67:11:d4:90:8c:3c:d9:46:aa:c5:
         d4:de:af:6a:32:42:4b:ec:fe:7d:cd:46:f9:7f:3e:b2:6f:47:
         8a:7a:86:66:27:93:37:1b:40:99:aa:96:a0:84:45:75:29:d1:
         21:43:53:29:59:b2:40:ce:53:79:30:d8:b4:9a:c3:f9:2e:54:
         63:c2:2e:b8:da:a0:9d:6f:4b:78:be:8e:88:77:e3:c6:61:d7:
         6f:1c:c3:16:b0:6e:31:29:39:d3:f3:ba:a8:74:b1:c0:ba:bf:
         64:c0:0b:80:3e:e4:70:50:ac:97:79:b4:45:ec:51:4b:14:01:
         ae:cc:cb:d5:5f:01:6f:82:73:8c:ad:09:5f:8b:e7:1c:c6:49:
         14:a5:55:b5:5a:13:bc:61:b5:69:97:e4:25:9b:ad:5c:ff:23:
         23:86:3f:ae
-----BEGIN CERTIFICATE-----
MIIDATCCAemgAwIBAgIJANT9XWRvHwVrMA0GCSqGSIb3DQEBCwUAMB4xHDAaBgNV
BAMME1FVSUMgU2VydmVyIFJvb3QgQ0EwHhcNMTcwNzA3MDgyMjUxWhcNMTcwNzEw
MDgyMjUxWjAeMRwwGgYDVQQDDBNRVUlDIFNlcnZlciBSb290IENBMIIBIjANBgkq
hkiG9w0BAQEFAAOCAQ8AMIIBCgKCAQEA05klnwtbUgCYl+gGcijMFUeS2YOS1NPk
TdTDQ8nEcHbUhvY5LjAmoRL5jqPVadMfdoW7/sn18FUTOEzEdIjiWZqveneWb3Sq
yv78lQ1a7qOnufAhavVEgc9y+FIcHEI7FgOavN/sNwppx+1F/IQzcks7dTmJyFiD
GvoQpw6EsHY0w0sCSMbor7Ks4K+5U5MqdZp3LVvwu+1rmMD2AKM2wmb3nqZwViNG
doD8eZEucRhva1YMXvXPFvQ9CtJlEKH5dyaf4fK8y9dur6+km6vCEIBR2nRjBYn/
URI/laN9wA1hcN9+dd+s9SIROtcA2q9g+bt5VrcJOXxYJwxPvI+19QIDAQABo0Iw
QDAPBgNVHRMBAf8EBTADAQH/MB0GA1UdDgQWBBTYoADJIje3ECnau+S8Se4RBVQP
PjAOBgNVHQ8BAf8EBAMCAQYwDQYJKoZIhvcNAQELBQADggEBAFY6u+N3gD0Vfvbs
gmdoS2GzScBnjRbWR1BarYvfoX9CjBpjxRwTdybNsImO0bSzDBUkeT3q/wHena7W
CSGO0gvbGRNC9e2zc87By/62N1Tcb0E1otsF70t+FbYqCBq3BQC3ZxHUkIw82Uaq
xdTer2oyQkvs/n3NRvl/PrJvR4p6hmYnkzcbQJmqlqCERXUp0SFDUylZskDOU3kw
2LSaw/kuVGPCLrjaoJ1vS3i+joh348Zh128cwxawbjEpOdPzuqh0scC6v2TAC4A+
5HBQrJd5tEXsUUsUAa7My9VfAW+Cc4ytCV+L5xzGSRSlVbVaE7xhtWmX5CWbrVz/
IyOGP64=
-----END CERTIFICATE-----
